(dp0
Vengine
p1
S'pdflatex'
p2
sVpackages
p3
c__builtin__
set
p4
((lp5
Vulem
p6
atp7
Rp8
sVfiles_with_guttermarks
p9
g4
((lp10
S'template.tex'
p11
aV/Users/daway/Documents/Princeton/Thesis2017/paper/IWformat-2016v3/template.tex
p12
atp13
Rp14
sVsynctex
p15
I01
s.